; Function Attrs: nounwind uwtable
define i32 @glfwCreateWindowSurface(ptr noundef %0, ptr noundef %1, ptr noundef %2, ptr noundef initializes((0, 8)) %3) local_unnamed_addr #0 {
  store i64 0, ptr %3, align 8, !tbaa !108
  %5 = load i32, ptr @_glfw, align 8, !tbaa !105
  %.not = icmp eq i32 %5, 0
  br i1 %.not, label %6, label %7

6:                                                ; preds = %4
  tail call void (i32, ptr, ...) @_glfwInputError(i32 noundef 65537, ptr noundef null) #5
  br label %19

7:                                                ; preds = %4
  %8 = tail call i32 @_glfwInitVulkan(i32 noundef 2)
  %.not7 = icmp eq i32 %8, 0
  br i1 %.not7, label %19, label %9

9:                                                ; preds = %7
  %10 = load ptr, ptr getelementptr inbounds nuw (i8, ptr @_glfw, i64 133816), align 8, !tbaa !106
  %.not8 = icmp eq ptr %10, null
  br i1 %.not8, label %11, label %12

11:                                               ; preds = %9
  tail call void (i32, ptr, ...) @_glfwInputError(i32 noundef 65542, ptr noundef nonnull @.str.39) #5
  br label %19

12:                                               ; preds = %9
  %13 = getelementptr inbounds nuw i8, ptr %1, i64 528
  %14 = load i32, ptr %13, align 8, !tbaa !109
  %.not9 = icmp eq i32 %14, 0
  br i1 %.not9, label %16, label %15

15:                                               ; preds = %12
  tail call void (i32, ptr, ...) @_glfwInputError(i32 noundef 65540, ptr noundef nonnull @.str.40) #5
  br label %19

16:                                               ; preds = %12
  %17 = load ptr, ptr getelementptr inbounds nuw (i8, ptr @_glfw, i64 608), align 8, !tbaa !143
  %18 = tail call i32 %17(ptr noundef %0, ptr noundef nonnull %1, ptr noundef %2, ptr noundef nonnull %3) #5
  br label %19

19:                                               ; preds = %7, %16, %15, %11, %6
  %.0 = phi i32 [ -1000000001, %15 ], [ %18, %16 ], [ -7, %11 ], [ -3, %6 ], [ -3, %7 ]
  ret i32 %.0
}